target datalayout = "e-m:e-p270:32:32-p271:32:32-p272:64:64-i64:64-i128:128-f80:128-n8:16:32:64-S128"
target triple = "x86_64-pc-linux-gnu"

%struct._zend_refcounted_h = type { i32, %union.anon }
%union.anon = type { i32 }
%struct._zend_string = type { %struct._zend_refcounted_h, i64, i64, [1 x i8] }

@.str = private unnamed_addr constant [5 x i8] c"self\00", align 1
@.str.1 = private unnamed_addr constant [7 x i8] c"parent\00", align 1

; Function Attrs: nounwind uwtable
define hidden i32 @zend_accel_get_class_name_map_ptr(ptr noundef %0) #0 {
  %2 = alloca ptr, align 8
  %3 = alloca i32, align 4
  %4 = alloca ptr, align 8
  %5 = alloca i32, align 4
  %6 = alloca i32, align 4
  %7 = alloca i32, align 4
  %8 = alloca i32, align 4
  %9 = alloca ptr, align 8
  %10 = alloca i32, align 4
  store ptr %0, ptr %9, align 8
  %11 = load ptr, ptr %9, align 8
  %12 = getelementptr inbounds %struct._zend_string, ptr %11, i32 0, i32 2
  %13 = load i64, ptr %12, align 8
  %14 = icmp eq i64 %13, 4
  br i1 %14, label %15, label %24

15:                                               ; preds = %1
  %16 = load ptr, ptr %9, align 8
  %17 = getelementptr inbounds %struct._zend_string, ptr %16, i32 0, i32 3
  %18 = getelementptr inbounds [1 x i8], ptr %17, i64 0, i64 0
  %19 = load ptr, ptr %9, align 8
  %20 = getelementptr inbounds %struct._zend_string, ptr %19, i32 0, i32 2
  %21 = load i64, ptr %20, align 8
  %22 = call i32 @zend_binary_strcasecmp(ptr noundef %18, i64 noundef %21, ptr noundef @.str, i64 noundef 4)
  %23 = icmp ne i32 %22, 0
  br i1 %23, label %24, label %38

24:                                               ; preds = %15, %1
  %25 = load ptr, ptr %9, align 8
  %26 = getelementptr inbounds %struct._zend_string, ptr %25, i32 0, i32 2
  %27 = load i64, ptr %26, align 8
  %28 = icmp eq i64 %27, 6
  br i1 %28, label %29, label %39

29:                                               ; preds = %24
  %30 = load ptr, ptr %9, align 8
  %31 = getelementptr inbounds %struct._zend_string, ptr %30, i32 0, i32 3
  %32 = getelementptr inbounds [1 x i8], ptr %31, i64 0, i64 0
  %33 = load ptr, ptr %9, align 8
  %34 = getelementptr inbounds %struct._zend_string, ptr %33, i32 0, i32 2
  %35 = load i64, ptr %34, align 8
  %36 = call i32 @zend_binary_strcasecmp(ptr noundef %32, i64 noundef %35, ptr noundef @.str.1, i64 noundef 6)
  %37 = icmp ne i32 %36, 0
  br i1 %37, label %39, label %38

38:                                               ; preds = %29, %15
  store i32 0, ptr %8, align 4
  br label %94

39:                                               ; preds = %29, %24
  %40 = load ptr, ptr %9, align 8
  %41 = getelementptr inbounds %struct._zend_string, ptr %40, i32 0, i32 0
  %42 = getelementptr inbounds %struct._zend_refcounted_h, ptr %41, i32 0, i32 1
  %43 = load i32, ptr %42, align 4
  store i32 %43, ptr %5, align 4
  %44 = load i32, ptr %5, align 4
  %45 = and i32 %44, 1008
  %46 = and i32 %45, 32
  %47 = icmp ne i32 %46, 0
  br i1 %47, label %48, label %53

48:                                               ; preds = %39
  %49 = load ptr, ptr %9, align 8
  %50 = getelementptr inbounds %struct._zend_string, ptr %49, i32 0, i32 0
  store ptr %50, ptr %4, align 8
  %51 = load ptr, ptr %4, align 8
  %52 = load i32, ptr %51, align 4
  store i32 %52, ptr %8, align 4
  br label %94

53:                                               ; preds = %39
  %54 = load ptr, ptr %9, align 8
  %55 = getelementptr inbounds %struct._zend_string, ptr %54, i32 0, i32 0
  %56 = getelementptr inbounds %struct._zend_refcounted_h, ptr %55, i32 0, i32 1
  %57 = load i32, ptr %56, align 4
  store i32 %57, ptr %6, align 4
  %58 = load i32, ptr %6, align 4
  %59 = and i32 %58, 1008
  %60 = and i32 %59, 64
  %61 = icmp ne i32 %60, 0
  br i1 %61, label %62, label %93

62:                                               ; preds = %53
  %63 = load ptr, ptr %9, align 8
  %64 = getelementptr inbounds %struct._zend_string, ptr %63, i32 0, i32 0
  %65 = getelementptr inbounds %struct._zend_refcounted_h, ptr %64, i32 0, i32 1
  %66 = load i32, ptr %65, align 4
  store i32 %66, ptr %7, align 4
  %67 = load i32, ptr %7, align 4
  %68 = and i32 %67, 1008
  %69 = and i32 %68, 256
  %70 = icmp ne i32 %69, 0
  br i1 %70, label %71, label %93

71:                                               ; preds = %62
  br label %72

72:                                               ; preds = %76, %71
  %73 = call ptr @zend_map_ptr_new()
  %74 = ptrtoint ptr %73 to i64
  %75 = trunc i64 %74 to i32
  store i32 %75, ptr %10, align 4
  br label %76

76:                                               ; preds = %72
  %77 = load i32, ptr %10, align 4
  %78 = icmp ule i32 %77, 2
  br i1 %78, label %72, label %79

79:                                               ; preds = %76
  %80 = load ptr, ptr %9, align 8
  %81 = getelementptr inbounds %struct._zend_string, ptr %80, i32 0, i32 0
  %82 = load i32, ptr %10, align 4
  store ptr %81, ptr %2, align 8
  store i32 %82, ptr %3, align 4
  %83 = load i32, ptr %3, align 4
  %84 = load ptr, ptr %2, align 8
  store i32 %83, ptr %84, align 4
  br label %85

85:                                               ; preds = %79
  %86 = load ptr, ptr %9, align 8
  %87 = getelementptr inbounds %struct._zend_string, ptr %86, i32 0, i32 0
  %88 = getelementptr inbounds %struct._zend_refcounted_h, ptr %87, i32 0, i32 1
  %89 = load i32, ptr %88, align 4
  %90 = or i32 %89, 32
  store i32 %90, ptr %88, align 4
  br label %91

91:                                               ; preds = %85
  %92 = load i32, ptr %10, align 4
  store i32 %92, ptr %8, align 4
  br label %94

93:                                               ; preds = %62, %53
  store i32 0, ptr %8, align 4
  br label %94

94:                                               ; preds = %93, %91, %48, %38
  %95 = load i32, ptr %8, align 4
  ret i32 %95
}