; Function Attrs: nounwind uwtable
define hidden i32 @zend_accel_get_class_name_map_ptr(ptr noundef %0) local_unnamed_addr #0 {
  %2 = getelementptr inbounds i8, ptr %0, i64 16
  %3 = load i64, ptr %2, align 8
  %4 = icmp eq i64 %3, 4
  br i1 %4, label %5, label %8

5:                                                ; preds = %1
  %6 = getelementptr inbounds i8, ptr %0, i64 24
  %7 = tail call i32 @zend_binary_strcasecmp(ptr noundef nonnull %6, i64 noundef 4, ptr noundef nonnull @.str, i64 noundef 4) #6
  %.not = icmp eq i32 %7, 0
  br i1 %.not, label %29, label %thread-pre-split

thread-pre-split:                                 ; preds = %5
  %.pr = load i64, ptr %2, align 8
  br label %8

8:                                                ; preds = %thread-pre-split, %1
  %9 = phi i64 [ %.pr, %thread-pre-split ], [ %3, %1 ]
  %10 = icmp eq i64 %9, 6
  br i1 %10, label %11, label %14

11:                                               ; preds = %8
  %12 = getelementptr inbounds i8, ptr %0, i64 24
  %13 = tail call i32 @zend_binary_strcasecmp(ptr noundef nonnull %12, i64 noundef 6, ptr noundef nonnull @.str.1, i64 noundef 6) #6
  %.not24 = icmp eq i32 %13, 0
  br i1 %.not24, label %29, label %14

14:                                               ; preds = %11, %8
  %15 = getelementptr inbounds i8, ptr %0, i64 4
  %16 = load i32, ptr %15, align 4
  %17 = and i32 %16, 32
  %.not25 = icmp eq i32 %17, 0
  br i1 %.not25, label %20, label %18

18:                                               ; preds = %14
  %19 = load i32, ptr %0, align 4
  br label %29

20:                                               ; preds = %14
  %21 = and i32 %16, 320
  %or.cond.not = icmp eq i32 %21, 320
  br i1 %or.cond.not, label %.preheader, label %29

.preheader:                                       ; preds = %20, %.preheader
  %22 = tail call ptr @zend_map_ptr_new() #6
  %23 = ptrtoint ptr %22 to i64
  %24 = trunc i64 %23 to i32
  %25 = icmp ult i32 %24, 3
  br i1 %25, label %.preheader, label %26

26:                                               ; preds = %.preheader
  store i32 %24, ptr %0, align 4
  %27 = load i32, ptr %15, align 4
  %28 = or i32 %27, 32
  store i32 %28, ptr %15, align 4
  br label %29

29:                                               ; preds = %20, %5, %11, %26, %18
  %.0 = phi i32 [ %19, %18 ], [ %24, %26 ], [ 0, %11 ], [ 0, %5 ], [ 0, %20 ]
  ret i32 %.0
}